target datalayout = "e-m:e-p270:32:32-p271:32:32-p272:64:64-i64:64-i128:128-f80:128-n8:16:32:64-S128"
target triple = "x86_64-pc-linux-gnu"

@noise = internal global i8 0, align 1
@.str.51 = private unnamed_addr constant [3 x i8] c"%s\00", align 1
@.str.54 = private unnamed_addr constant [39 x i8] c"%d%c%d%c%d%c%1d%*[0]%c%*[0123456789]%c\00", align 1
@.str.55 = private unnamed_addr constant [56 x i8] c"fractional seconds rejected by pre-2018 versions of zic\00", align 1
@.str.56 = private unnamed_addr constant [61 x i8] c"values over 24 hours not handled by pre-2007 versions of zic\00", align 1
@.str.57 = private unnamed_addr constant [14 x i8] c"time overflow\00", align 1

; Function Attrs: nounwind uwtable
define internal void @time_overflow() #0 {
  call void (ptr, ...) @error(ptr noundef @.str.57)
  call void @exit(i32 noundef 1) #17
  unreachable
}

; Function Attrs: nounwind uwtable
define internal i64 @oadd(i64 noundef %0, i64 noundef %1) #0 {
  %3 = alloca i64, align 8
  %4 = alloca i64, align 8
  store i64 %0, ptr %3, align 8
  store i64 %1, ptr %4, align 8
  %5 = load i64, ptr %3, align 8
  %6 = icmp slt i64 %5, 0
  br i1 %6, label %7, label %12

7:                                                ; preds = %2
  %8 = load i64, ptr %4, align 8
  %9 = load i64, ptr %3, align 8
  %10 = sub i64 -9223372036854775808, %9
  %11 = icmp slt i64 %8, %10
  br i1 %11, label %17, label %18

12:                                               ; preds = %2
  %13 = load i64, ptr %3, align 8
  %14 = sub i64 9223372036854775807, %13
  %15 = load i64, ptr %4, align 8
  %16 = icmp slt i64 %14, %15
  br i1 %16, label %17, label %18

17:                                               ; preds = %12, %7
  call void @time_overflow()
  br label %18

18:                                               ; preds = %17, %12, %7
  %19 = load i64, ptr %3, align 8
  %20 = load i64, ptr %4, align 8
  %21 = add i64 %19, %20
  ret i64 %21
}

; Function Attrs: nounwind uwtable
define internal i64 @gethms(ptr noundef %0, ptr noundef %1) #0 {
  %3 = alloca i64, align 8
  %4 = alloca ptr, align 8
  %5 = alloca ptr, align 8
  %6 = alloca i32, align 4
  %7 = alloca i32, align 4
  %8 = alloca i32, align 4
  %9 = alloca i32, align 4
  %10 = alloca i8, align 1
  %11 = alloca i8, align 1
  %12 = alloca i8, align 1
  %13 = alloca i8, align 1
  %14 = alloca i8, align 1
  %15 = alloca i32, align 4
  %16 = alloca i8, align 1
  %17 = alloca i32, align 4
  store ptr %0, ptr %4, align 8
  store ptr %1, ptr %5, align 8
  call void @llvm.lifetime.start.p0(i64 4, ptr %6) #13
  call void @llvm.lifetime.start.p0(i64 4, ptr %7) #13
  call void @llvm.lifetime.start.p0(i64 4, ptr %8) #13
  store i32 0, ptr %8, align 4
  call void @llvm.lifetime.start.p0(i64 4, ptr %9) #13
  store i32 0, ptr %9, align 4
  call void @llvm.lifetime.start.p0(i64 1, ptr %10) #13
  call void @llvm.lifetime.start.p0(i64 1, ptr %11) #13
  call void @llvm.lifetime.start.p0(i64 1, ptr %12) #13
  call void @llvm.lifetime.start.p0(i64 1, ptr %13) #13
  store i8 48, ptr %13, align 1
  call void @llvm.lifetime.start.p0(i64 1, ptr %14) #13
  call void @llvm.lifetime.start.p0(i64 4, ptr %15) #13
  store i32 0, ptr %15, align 4
  call void @llvm.lifetime.start.p0(i64 1, ptr %16) #13
  store i8 1, ptr %16, align 1
  %18 = load ptr, ptr %4, align 8
  %19 = icmp eq ptr %18, null
  br i1 %19, label %25, label %20

20:                                               ; preds = %2
  %21 = load ptr, ptr %4, align 8
  %22 = load i8, ptr %21, align 1
  %23 = sext i8 %22 to i32
  %24 = icmp eq i32 %23, 0
  br i1 %24, label %25, label %26

25:                                               ; preds = %20, %2
  store i64 0, ptr %3, align 8
  store i32 1, ptr %17, align 4
  br label %156

26:                                               ; preds = %20
  %27 = load ptr, ptr %4, align 8
  %28 = load i8, ptr %27, align 1
  %29 = sext i8 %28 to i32
  %30 = icmp eq i32 %29, 45
  br i1 %30, label %31, label %34

31:                                               ; preds = %26
  store i32 -1, ptr %7, align 4
  %32 = load ptr, ptr %4, align 8
  %33 = getelementptr inbounds nuw i8, ptr %32, i32 1
  store ptr %33, ptr %4, align 8
  br label %35

34:                                               ; preds = %26
  store i32 1, ptr %7, align 4
  br label %35

35:                                               ; preds = %34, %31
  %36 = load ptr, ptr %4, align 8
  %37 = call i32 (ptr, ptr, ...) @__isoc99_sscanf(ptr noundef %36, ptr noundef @.str.54, ptr noundef %6, ptr noundef %10, ptr noundef %8, ptr noundef %11, ptr noundef %9, ptr noundef %12, ptr noundef %15, ptr noundef %13, ptr noundef %14) #13
  switch i32 %37, label %38 [
    i32 8, label %39
    i32 7, label %50
    i32 5, label %68
    i32 3, label %79
    i32 1, label %90
  ]

38:                                               ; preds = %35
  store i8 0, ptr %16, align 1
  br label %90

39:                                               ; preds = %35
  %40 = load i8, ptr %13, align 1
  %41 = sext i8 %40 to i32
  %42 = icmp sle i32 48, %41
  br i1 %42, label %43, label %47

43:                                               ; preds = %39
  %44 = load i8, ptr %13, align 1
  %45 = sext i8 %44 to i32
  %46 = icmp sle i32 %45, 57
  br label %47

47:                                               ; preds = %43, %39
  %48 = phi i1 [ false, %39 ], [ %46, %43 ]
  %49 = zext i1 %48 to i8
  store i8 %49, ptr %16, align 1
  br label %50

50:                                               ; preds = %35, %47
  %51 = load i8, ptr %12, align 1
  %52 = sext i8 %51 to i32
  %53 = icmp eq i32 %52, 46
  %54 = zext i1 %53 to i32
  %55 = load i8, ptr %16, align 1, !range !6, !noundef !7
  %56 = trunc i8 %55 to i1
  %57 = zext i1 %56 to i32
  %58 = and i32 %57, %54
  %59 = icmp ne i32 %58, 0
  %60 = zext i1 %59 to i8
  store i8 %60, ptr %16, align 1
  %61 = load i8, ptr %16, align 1, !range !6, !noundef !7
  %62 = trunc i8 %61 to i1
  br i1 %62, label %63, label %67

63:                                               ; preds = %50
  %64 = load i8, ptr @noise, align 1, !range !6, !noundef !7
  %65 = trunc i8 %64 to i1
  br i1 %65, label %66, label %67

66:                                               ; preds = %63
  call void (ptr, ...) @warning(ptr noundef @.str.55)
  br label %67

67:                                               ; preds = %66, %63, %50
  br label %68

68:                                               ; preds = %35, %67
  %69 = load i8, ptr %11, align 1
  %70 = sext i8 %69 to i32
  %71 = icmp eq i32 %70, 58
  %72 = zext i1 %71 to i32
  %73 = load i8, ptr %16, align 1, !range !6, !noundef !7
  %74 = trunc i8 %73 to i1
  %75 = zext i1 %74 to i32
  %76 = and i32 %75, %72
  %77 = icmp ne i32 %76, 0
  %78 = zext i1 %77 to i8
  store i8 %78, ptr %16, align 1
  br label %79

79:                                               ; preds = %35, %68
  %80 = load i8, ptr %10, align 1
  %81 = sext i8 %80 to i32
  %82 = icmp eq i32 %81, 58
  %83 = zext i1 %82 to i32
  %84 = load i8, ptr %16, align 1, !range !6, !noundef !7
  %85 = trunc i8 %84 to i1
  %86 = zext i1 %85 to i32
  %87 = and i32 %86, %83
  %88 = icmp ne i32 %87, 0
  %89 = zext i1 %88 to i8
  store i8 %89, ptr %16, align 1
  br label %90

90:                                               ; preds = %79, %35, %38
  %91 = load i8, ptr %16, align 1, !range !6, !noundef !7
  %92 = trunc i8 %91 to i1
  br i1 %92, label %95, label %93

93:                                               ; preds = %90
  %94 = load ptr, ptr %5, align 8
  call void (ptr, ...) @error(ptr noundef @.str.51, ptr noundef %94)
  store i64 0, ptr %3, align 8
  store i32 1, ptr %17, align 4
  br label %156

95:                                               ; preds = %90
  %96 = load i32, ptr %6, align 4
  %97 = icmp slt i32 %96, 0
  br i1 %97, label %110, label %98

98:                                               ; preds = %95
  %99 = load i32, ptr %8, align 4
  %100 = icmp slt i32 %99, 0
  br i1 %100, label %110, label %101

101:                                              ; preds = %98
  %102 = load i32, ptr %8, align 4
  %103 = icmp sge i32 %102, 60
  br i1 %103, label %110, label %104

104:                                              ; preds = %101
  %105 = load i32, ptr %9, align 4
  %106 = icmp slt i32 %105, 0
  br i1 %106, label %110, label %107

107:                                              ; preds = %104
  %108 = load i32, ptr %9, align 4
  %109 = icmp sgt i32 %108, 60
  br i1 %109, label %110, label %112

110:                                              ; preds = %107, %104, %101, %98, %95
  %111 = load ptr, ptr %5, align 8
  call void (ptr, ...) @error(ptr noundef @.str.51, ptr noundef %111)
  store i64 0, ptr %3, align 8
  store i32 1, ptr %17, align 4
  br label %156

112:                                              ; preds = %107
  %113 = load i32, ptr %9, align 4
  %114 = xor i32 %113, 1
  %115 = load i8, ptr %13, align 1
  %116 = sext i8 %115 to i32
  %117 = icmp eq i32 %116, 48
  %118 = zext i1 %117 to i32
  %119 = and i32 %114, %118
  %120 = add i32 5, %119
  %121 = load i32, ptr %15, align 4
  %122 = icmp sle i32 %120, %121
  %123 = zext i1 %122 to i32
  %124 = load i32, ptr %9, align 4
  %125 = add i32 %124, %123
  store i32 %125, ptr %9, align 4
  %126 = load i8, ptr @noise, align 1, !range !6, !noundef !7
  %127 = trunc i8 %126 to i1
  br i1 %127, label %128, label %141

128:                                              ; preds = %112
  %129 = load i32, ptr %6, align 4
  %130 = icmp sgt i32 %129, 24
  br i1 %130, label %140, label %131

131:                                              ; preds = %128
  %132 = load i32, ptr %6, align 4
  %133 = icmp eq i32 %132, 24
  br i1 %133, label %134, label %141

134:                                              ; preds = %131
  %135 = load i32, ptr %8, align 4
  %136 = icmp ne i32 %135, 0
  br i1 %136, label %140, label %137

137:                                              ; preds = %134
  %138 = load i32, ptr %9, align 4
  %139 = icmp ne i32 %138, 0
  br i1 %139, label %140, label %141

140:                                              ; preds = %137, %134, %128
  call void (ptr, ...) @warning(ptr noundef @.str.56)
  br label %141

141:                                              ; preds = %140, %137, %131, %112
  %142 = load i32, ptr %7, align 4
  %143 = sext i32 %142 to i64
  %144 = load i32, ptr %6, align 4
  %145 = sext i32 %144 to i64
  %146 = mul i64 %143, %145
  %147 = mul i64 %146, 3600
  %148 = load i32, ptr %7, align 4
  %149 = load i32, ptr %8, align 4
  %150 = mul i32 %149, 60
  %151 = load i32, ptr %9, align 4
  %152 = add i32 %150, %151
  %153 = mul i32 %148, %152
  %154 = sext i32 %153 to i64
  %155 = call i64 @oadd(i64 noundef %147, i64 noundef %154)
  store i64 %155, ptr %3, align 8
  store i32 1, ptr %17, align 4
  br label %156

156:                                              ; preds = %141, %110, %93, %25
  call void @llvm.lifetime.end.p0(i64 1, ptr %16) #13
  call void @llvm.lifetime.end.p0(i64 4, ptr %15) #13
  call void @llvm.lifetime.end.p0(i64 1, ptr %14) #13
  call void @llvm.lifetime.end.p0(i64 1, ptr %13) #13
  call void @llvm.lifetime.end.p0(i64 1, ptr %12) #13
  call void @llvm.lifetime.end.p0(i64 1, ptr %11) #13
  call void @llvm.lifetime.end.p0(i64 1, ptr %10) #13
  call void @llvm.lifetime.end.p0(i64 4, ptr %9) #13
  call void @llvm.lifetime.end.p0(i64 4, ptr %8) #13
  call void @llvm.lifetime.end.p0(i64 4, ptr %7) #13
  call void @llvm.lifetime.end.p0(i64 4, ptr %6) #13
  %157 = load i64, ptr %3, align 8
  ret i64 %157
}