; Function Attrs: nounwind uwtable
define internal fastcc range(i64 -7733088616448, 7733088616448) i64 @gethms(ptr noundef readonly captures(address_is_null) %0, ptr noundef %1) unnamed_addr #0 {
  %3 = alloca i32, align 4
  %4 = alloca i32, align 4
  %5 = alloca i32, align 4
  %6 = alloca i8, align 1
  %7 = alloca i8, align 1
  %8 = alloca i8, align 1
  %9 = alloca i8, align 1
  %10 = alloca i8, align 1
  %11 = alloca i32, align 4
  call void @llvm.lifetime.start.p0(i64 4, ptr nonnull %3) #26
  call void @llvm.lifetime.start.p0(i64 4, ptr nonnull %4) #26
  store i32 0, ptr %4, align 4
  call void @llvm.lifetime.start.p0(i64 4, ptr nonnull %5) #26
  store i32 0, ptr %5, align 4
  call void @llvm.lifetime.start.p0(i64 1, ptr nonnull %6) #26
  call void @llvm.lifetime.start.p0(i64 1, ptr nonnull %7) #26
  call void @llvm.lifetime.start.p0(i64 1, ptr nonnull %8) #26
  call void @llvm.lifetime.start.p0(i64 1, ptr nonnull %9) #26
  store i8 48, ptr %9, align 1
  call void @llvm.lifetime.start.p0(i64 1, ptr nonnull %10) #26
  call void @llvm.lifetime.start.p0(i64 4, ptr nonnull %11) #26
  store i32 0, ptr %11, align 4
  %12 = icmp eq ptr %0, null
  br i1 %12, label %73, label %13

13:                                               ; preds = %2
  %14 = load i8, ptr %0, align 1
  switch i8 %14, label %17 [
    i8 0, label %73
    i8 45, label %15
  ]

15:                                               ; preds = %13
  %16 = getelementptr inbounds nuw i8, ptr %0, i64 1
  br label %17

17:                                               ; preds = %13, %15
  %.025 = phi ptr [ %16, %15 ], [ %0, %13 ]
  %.023 = phi i32 [ -1, %15 ], [ 1, %13 ]
  %18 = call i32 (ptr, ptr, ...) @__isoc99_sscanf(ptr noundef nonnull %.025, ptr noundef nonnull @.str.54, ptr noundef nonnull %3, ptr noundef nonnull %6, ptr noundef nonnull %4, ptr noundef nonnull %7, ptr noundef nonnull %5, ptr noundef nonnull %8, ptr noundef nonnull %11, ptr noundef nonnull %9, ptr noundef nonnull %10) #26
  switch i32 %18, label %.critedge [
    i32 8, label %19
    i32 7, label %23
    i32 5, label %29
    i32 3, label %33
    i32 1, label %.critedge34
  ]

19:                                               ; preds = %17
  %20 = load i8, ptr %9, align 1
  %21 = add i8 %20, -48
  %22 = icmp ult i8 %21, 10
  br label %23

23:                                               ; preds = %19, %17
  %.0 = phi i1 [ true, %17 ], [ %22, %19 ]
  %24 = load i8, ptr %8, align 1
  %25 = icmp eq i8 %24, 46
  %26 = select i1 %25, i1 %.0, i1 false
  br i1 %26, label %27, label %29

27:                                               ; preds = %23
  %.b3031 = load i1, ptr @noise, align 1
  br i1 %.b3031, label %28, label %29

28:                                               ; preds = %27
  call void (ptr, ...) @warning(ptr noundef nonnull @.str.55)
  br label %29

29:                                               ; preds = %23, %27, %28, %17
  %.1.shrunk = phi i1 [ true, %17 ], [ true, %28 ], [ true, %27 ], [ false, %23 ]
  %30 = load i8, ptr %7, align 1
  %31 = icmp eq i8 %30, 58
  %32 = and i1 %.1.shrunk, %31
  br label %33

33:                                               ; preds = %29, %17
  %.2 = phi i1 [ true, %17 ], [ %32, %29 ]
  %34 = load i8, ptr %6, align 1
  %35 = icmp eq i8 %34, 58
  %36 = select i1 %35, i1 %.2, i1 false
  br i1 %36, label %.critedge34, label %.critedge

.critedge:                                        ; preds = %17, %33
  call void (ptr, ...) @error(ptr noundef nonnull @.str.51, ptr noundef %1)
  br label %73

.critedge34:                                      ; preds = %17, %33
  %37 = load i32, ptr %3, align 4
  %38 = icmp slt i32 %37, 0
  %39 = load i32, ptr %4, align 4
  %40 = icmp ugt i32 %39, 59
  %or.cond3 = select i1 %38, i1 true, i1 %40
  %41 = load i32, ptr %5, align 4
  %42 = icmp ugt i32 %41, 60
  %or.cond7 = select i1 %or.cond3, i1 true, i1 %42
  br i1 %or.cond7, label %43, label %44

43:                                               ; preds = %.critedge34
  call void (ptr, ...) @error(ptr noundef nonnull @.str.51, ptr noundef %1)
  br label %73

44:                                               ; preds = %.critedge34
  %45 = load i8, ptr %9, align 1
  %46 = icmp eq i8 %45, 48
  %47 = and i32 %41, 1
  %48 = sub nuw nsw i32 6, %47
  %49 = select i1 %46, i32 %48, i32 5
  %50 = load i32, ptr %11, align 4
  %51 = icmp sle i32 %49, %50
  %52 = zext i1 %51 to i32
  %53 = add nuw nsw i32 %41, %52
  store i32 %53, ptr %5, align 4
  %.b32 = load i1, ptr @noise, align 1
  br i1 %.b32, label %54, label %oadd.exit

54:                                               ; preds = %44
  %55 = icmp samesign ugt i32 %37, 24
  br i1 %55, label %61, label %56

56:                                               ; preds = %54
  %57 = icmp eq i32 %37, 24
  br i1 %57, label %58, label %oadd.exit

58:                                               ; preds = %56
  %59 = icmp ne i32 %39, 0
  %60 = icmp ne i32 %53, 0
  %or.cond9 = select i1 %59, i1 true, i1 %60
  br i1 %or.cond9, label %61, label %oadd.exit

61:                                               ; preds = %58, %54
  call void (ptr, ...) @warning(ptr noundef nonnull @.str.56)
  %.pre = load i32, ptr %3, align 4
  %.pre35 = load i32, ptr %4, align 4
  %.pre36 = load i32, ptr %5, align 4
  br label %oadd.exit

oadd.exit:                                        ; preds = %58, %61, %56, %44
  %62 = phi i32 [ 0, %58 ], [ %.pre36, %61 ], [ %53, %56 ], [ %53, %44 ]
  %63 = phi i32 [ 0, %58 ], [ %.pre35, %61 ], [ %39, %56 ], [ %39, %44 ]
  %64 = phi i32 [ 24, %58 ], [ %.pre, %61 ], [ %37, %56 ], [ %37, %44 ]
  %65 = sext i32 %64 to i64
  %narrow = mul nsw i32 %.023, 3600
  %66 = sext i32 %narrow to i64
  %67 = mul nsw i64 %66, %65
  %68 = mul i32 %63, 60
  %69 = add i32 %68, %62
  %70 = mul i32 %69, %.023
  %71 = sext i32 %70 to i64
  %72 = add nsw i64 %67, %71
  br label %73

73:                                               ; preds = %13, %2, %oadd.exit, %43, %.critedge
  %.024 = phi i64 [ 0, %43 ], [ %72, %oadd.exit ], [ 0, %.critedge ], [ 0, %13 ], [ 0, %2 ]
  call void @llvm.lifetime.end.p0(i64 4, ptr nonnull %11) #26
  call void @llvm.lifetime.end.p0(i64 1, ptr nonnull %10) #26
  call void @llvm.lifetime.end.p0(i64 1, ptr nonnull %9) #26
  call void @llvm.lifetime.end.p0(i64 1, ptr nonnull %8) #26
  call void @llvm.lifetime.end.p0(i64 1, ptr nonnull %7) #26
  call void @llvm.lifetime.end.p0(i64 1, ptr nonnull %6) #26
  call void @llvm.lifetime.end.p0(i64 4, ptr nonnull %5) #26
  call void @llvm.lifetime.end.p0(i64 4, ptr nonnull %4) #26
  call void @llvm.lifetime.end.p0(i64 4, ptr nonnull %3) #26
  ret i64 %.024
}